Certificate:
    Data:
        Version: 3 (0x2)
        Serial Number: 3 (0x3)
        Signature Algorithm: sha256WithRSAEncryption
        Issuer: C=US, ST=State, L=City, O=Example Org, CN=Example Org RAUC CA Development
        Validity
            Not Before: Aug 20 11:07:01 2025 GMT
            Not After : Aug 20 11:07:01 2026 GMT
        Subject: C=US, ST=State, O=Example Org, CN=Example Org Development-1
        Subject Public Key Info:
            Public Key Algorithm: rsaEncryption
                Public-Key: (2048 bit)
                Modulus:
                    00:8b:47:b4:f5:a0:4a:a3:45:13:a9:08:07:f8:9a:
                    77:00:49:9a:23:6e:3f:64:81:50:c5:ec:af:6e:45:
                    81:95:4b:05:26:d9:8a:c2:2d:e6:f2:70:d7:cb:1e:
                    d3:b1:f0:ef:9a:c8:62:06:70:01:7e:77:15:6c:74:
                    f4:0d:97:9b:42:ab:25:7e:d8:66:79:53:7b:0f:68:
                    bd:a7:8a:dc:1c:e0:68:03:b6:0a:cd:e7:36:ac:3b:
                    77:c2:2a:36:f6:74:47:2c:d0:2f:b2:52:d1:21:0e:
                    a8:52:b9:0c:3d:4a:06:13:14:e6:c2:01:87:b8:0d:
                    83:ef:7b:c9:51:6f:53:f9:67:f3:2b:c3:d0:da:9f:
                    8c:62:b3:b0:44:04:93:cc:d6:3c:1e:84:84:ac:dd:
                    93:c1:f1:60:0f:9e:d3:44:11:82:63:ce:40:9d:52:
                    94:f9:a9:ad:c9:80:21:55:20:ca:1b:e9:0f:6e:db:
                    5d:a2:ef:9f:9a:f2:ed:04:ef:24:a5:97:1a:cc:18:
                    92:ae:c7:22:d1:d6:43:68:33:86:a3:d6:8c:1f:15:
                    67:60:3a:c0:a1:9d:b1:84:ed:eb:7b:38:0c:3c:7e:
                    43:40:a9:1f:b0:29:da:78:2c:f6:c7:df:7f:3b:78:
                    23:cb:b1:c0:16:a3:cd:8d:a7:f6:9e:04:10:c8:db:
                    45:53
                Exponent: 65537 (0x10001)
        X509v3 extensions:
            X509v3 Subject Key Identifier: 
                3D:DC:18:E9:0A:AF:EF:59:B8:93:78:7E:BD:ED:8B:CE:73:B4:16:09
            X509v3 Authority Key Identifier: 
                F2:FE:CE:D8:3A:71:0D:7F:26:47:ED:7B:FE:E0:48:B0:DD:BA:75:D9
            X509v3 Basic Constraints: critical
                CA:FALSE
            X509v3 Key Usage: critical
                Digital Signature
    Signature Algorithm: sha256WithRSAEncryption
    Signature Value:
        08:8a:fb:50:e3:7f:37:90:a8:db:e5:3f:c3:87:5a:68:a0:09:
        eb:11:61:06:e3:cc:96:c8:79:9d:0d:49:8f:78:d4:24:0c:35:
        0f:52:ac:22:00:eb:1b:ff:33:2a:83:88:47:b3:a9:8e:75:dd:
        b6:b7:b4:c1:1b:80:15:25:75:4e:73:db:d3:86:24:59:e0:7d:
        8c:ce:63:33:44:5f:9d:61:4f:1c:d1:47:ca:87:75:27:c6:64:
        d7:a3:46:3a:23:fa:48:6a:ae:4e:e8:dc:b3:bf:42:29:b2:be:
        44:c7:6a:a8:a8:15:e3:cf:9d:15:59:7d:d5:ac:dd:20:92:9f:
        3a:02:c3:97:9f:e3:26:d9:82:b1:a7:2c:f9:1c:ca:24:af:6e:
        48:87:5c:90:f8:27:51:41:21:20:c4:b6:52:56:8e:de:d2:fe:
        86:47:4a:a1:69:d8:8a:68:e8:fe:30:ff:f8:88:6e:f4:13:f0:
        20:3a:73:13:7b:c4:42:af:41:6f:bd:f6:46:ee:73:63:f3:32:
        d9:d4:c4:d0:54:c0:48:b1:21:af:3e:49:f1:8a:f8:62:d4:c8:
        8f:40:c9:24:2e:39:b4:ad:80:a2:08:6e:d2:e1:f6:26:6a:b6:
        49:58:10:e4:74:a0:71:59:cf:26:4c:67:c1:a3:6d:08:3f:8a:
        39:59:5e:b0
-----BEGIN CERTIFICATE-----
MIIDnjCCAoagAwIBAgIBAzANBgkqhkiG9w0BAQsFADBsMQswCQYDVQQGEwJVUzEO
MAwGA1UECAwFU3RhdGUxDTALBgNVBAcMBENpdHkxFDASBgNVBAoMC0V4YW1wbGUg
T3JnMSgwJgYDVQQDDB9FeGFtcGxlIE9yZyBSQVVDIENBIERldmVsb3BtZW50MB4X
DTI1MDgyMDExMDcwMVoXDTI2MDgyMDExMDcwMVowVzELMAkGA1UEBhMCVVMxDjAM
BgNVBAgMBVN0YXRlMRQwEgYDVQQKDAtFeGFtcGxlIE9yZzEiMCAGA1UEAwwZRXhh
bXBsZSBPcmcgRGV2ZWxvcG1lbnQtMTCCASIwDQYJKoZIhvcNAQEBBQADggEPADCC
AQoCggEBAItHtPWgSqNFE6kIB/iadwBJmiNuP2SBUMXsr25FgZVLBSbZisIt5vJw
18se07Hw75rIYgZwAX53FWx09A2Xm0KrJX7YZnlTew9ovaeK3BzgaAO2Cs3nNqw7
d8IqNvZ0RyzQL7JS0SEOqFK5DD1KBhMU5sIBh7gNg+97yVFvU/ln8yvD0NqfjGKz
sEQEk8zWPB6EhKzdk8HxYA+e00QRgmPOQJ1SlPmprcmAIVUgyhvpD27bXaLvn5ry
7QTvJKWXGswYkq7HItHWQ2gzhqPWjB8VZ2A6wKGdsYTt63s4DDx+Q0CpH7Ap2ngs
9sfffzt4I8uxwBajzY2n9p4EEMjbRVMCAwEAAaNgMF4wHQYDVR0OBBYEFD3cGOkK
r+9ZuJN4fr3ti85ztBYJMB8GA1UdIwQYMBaAFPL+ztg6cQ1/Jkfte/7gSLDdunXZ
MAwGA1UdEwEB/wQCMAAwDgYDVR0PAQH/BAQDAgeAMA0GCSqGSIb3DQEBCwUAA4IB
AQAIivtQ4383kKjb5T/Dh1pooAnrEWEG48yWyHmdDUmPeNQkDDUPUqwiAOsb/zMq
g4hHs6mOdd22t7TBG4AVJXVOc9vThiRZ4H2MzmMzRF+dYU8c0UfKh3UnxmTXo0Y6
I/pIaq5O6Nyzv0Ipsr5Ex2qoqBXjz50VWX3VrN0gkp86AsOXn+Mm2YKxpyz5HMok
r25Ih1yQ+CdRQSEgxLZSVo7e0v6GR0qhadiKaOj+MP/4iG70E/AgOnMTe8RCr0Fv
vfZG7nNj8zLZ1MTQVMBIsSGvPknxivhi1MiPQMkkLjm0rYCiCG7S4fYmarZJWBDk
dKBxWc8mTGfBo20IP4o5WV6w
-----END CERTIFICATE-----
