Certificate:
    Data:
        Version: 3 (0x2)
        Serial Number: 2 (0x2)
        Signature Algorithm: sha256WithRSAEncryption
        Issuer: C=US, ST=State, L=City, O=Example Org, CN=Example Org RAUC CA Development
        Validity
            Not Before: Aug 20 11:01:33 2025 GMT
            Not After : Aug 20 11:01:33 2026 GMT
        Subject: C=US, ST=State, O=Example Org, CN=Example Org Development-1
        Subject Public Key Info:
            Public Key Algorithm: rsaEncryption
                Public-Key: (2048 bit)
                Modulus:
                    00:8b:47:b4:f5:a0:4a:a3:45:13:a9:08:07:f8:9a:
                    77:00:49:9a:23:6e:3f:64:81:50:c5:ec:af:6e:45:
                    81:95:4b:05:26:d9:8a:c2:2d:e6:f2:70:d7:cb:1e:
                    d3:b1:f0:ef:9a:c8:62:06:70:01:7e:77:15:6c:74:
                    f4:0d:97:9b:42:ab:25:7e:d8:66:79:53:7b:0f:68:
                    bd:a7:8a:dc:1c:e0:68:03:b6:0a:cd:e7:36:ac:3b:
                    77:c2:2a:36:f6:74:47:2c:d0:2f:b2:52:d1:21:0e:
                    a8:52:b9:0c:3d:4a:06:13:14:e6:c2:01:87:b8:0d:
                    83:ef:7b:c9:51:6f:53:f9:67:f3:2b:c3:d0:da:9f:
                    8c:62:b3:b0:44:04:93:cc:d6:3c:1e:84:84:ac:dd:
                    93:c1:f1:60:0f:9e:d3:44:11:82:63:ce:40:9d:52:
                    94:f9:a9:ad:c9:80:21:55:20:ca:1b:e9:0f:6e:db:
                    5d:a2:ef:9f:9a:f2:ed:04:ef:24:a5:97:1a:cc:18:
                    92:ae:c7:22:d1:d6:43:68:33:86:a3:d6:8c:1f:15:
                    67:60:3a:c0:a1:9d:b1:84:ed:eb:7b:38:0c:3c:7e:
                    43:40:a9:1f:b0:29:da:78:2c:f6:c7:df:7f:3b:78:
                    23:cb:b1:c0:16:a3:cd:8d:a7:f6:9e:04:10:c8:db:
                    45:53
                Exponent: 65537 (0x10001)
        X509v3 extensions:
            X509v3 Subject Key Identifier: 
                3D:DC:18:E9:0A:AF:EF:59:B8:93:78:7E:BD:ED:8B:CE:73:B4:16:09
            X509v3 Authority Key Identifier: 
                F2:FE:CE:D8:3A:71:0D:7F:26:47:ED:7B:FE:E0:48:B0:DD:BA:75:D9
            X509v3 Basic Constraints: critical
                CA:FALSE
            X509v3 Key Usage: critical
                Digital Signature
            X509v3 Extended Key Usage: 
                Code Signing
    Signature Algorithm: sha256WithRSAEncryption
    Signature Value:
        b7:25:8a:f0:22:6b:53:73:74:cf:4d:1b:64:a0:f8:58:3b:4f:
        0b:29:e3:da:b5:d4:01:d2:e2:68:33:69:80:8c:04:91:f0:9b:
        40:44:de:31:f0:97:9e:9e:d9:29:3d:42:58:21:98:39:cc:93:
        a8:8b:68:ae:63:9c:2e:df:67:6b:fd:55:8e:15:61:21:72:ab:
        12:08:45:4c:e8:8a:3c:84:b7:bd:df:27:f5:f9:6d:7b:cb:64:
        32:c0:f3:22:fc:d9:df:d1:cf:bb:58:29:5a:a7:3c:c2:6c:b4:
        e6:76:7f:6c:e6:df:1c:db:e5:6f:b2:a4:91:59:6c:e5:53:6c:
        03:4f:c0:0a:73:f2:19:41:f6:0f:12:89:4b:82:cd:14:e8:49:
        f3:68:b1:8d:3b:1d:99:2c:7a:37:cf:8f:08:73:14:bf:6d:9a:
        c0:f8:51:47:f3:03:e8:46:ea:13:4c:98:6b:00:02:73:c6:7f:
        c3:fe:df:52:b7:57:10:af:de:f3:db:88:f1:d3:63:f0:08:57:
        b6:0d:26:dd:0a:d9:1c:de:05:f6:b9:67:13:e3:e0:37:cc:55:
        51:49:f8:cc:e1:9e:60:12:e1:3a:87:dc:e3:9b:2a:19:ec:5f:
        92:2b:71:4c:5d:95:55:ea:15:84:a8:4d:72:0b:05:66:93:55:
        f8:8d:74:fe
-----BEGIN CERTIFICATE-----
MIIDszCCApugAwIBAgIBAjANBgkqhkiG9w0BAQsFADBsMQswCQYDVQQGEwJVUzEO
MAwGA1UECAwFU3RhdGUxDTALBgNVBAcMBENpdHkxFDASBgNVBAoMC0V4YW1wbGUg
T3JnMSgwJgYDVQQDDB9FeGFtcGxlIE9yZyBSQVVDIENBIERldmVsb3BtZW50MB4X
DTI1MDgyMDExMDEzM1oXDTI2MDgyMDExMDEzM1owVzELMAkGA1UEBhMCVVMxDjAM
BgNVBAgMBVN0YXRlMRQwEgYDVQQKDAtFeGFtcGxlIE9yZzEiMCAGA1UEAwwZRXhh
bXBsZSBPcmcgRGV2ZWxvcG1lbnQtMTCCASIwDQYJKoZIhvcNAQEBBQADggEPADCC
AQoCggEBAItHtPWgSqNFE6kIB/iadwBJmiNuP2SBUMXsr25FgZVLBSbZisIt5vJw
18se07Hw75rIYgZwAX53FWx09A2Xm0KrJX7YZnlTew9ovaeK3BzgaAO2Cs3nNqw7
d8IqNvZ0RyzQL7JS0SEOqFK5DD1KBhMU5sIBh7gNg+97yVFvU/ln8yvD0NqfjGKz
sEQEk8zWPB6EhKzdk8HxYA+e00QRgmPOQJ1SlPmprcmAIVUgyhvpD27bXaLvn5ry
7QTvJKWXGswYkq7HItHWQ2gzhqPWjB8VZ2A6wKGdsYTt63s4DDx+Q0CpH7Ap2ngs
9sfffzt4I8uxwBajzY2n9p4EEMjbRVMCAwEAAaN1MHMwHQYDVR0OBBYEFD3cGOkK
r+9ZuJN4fr3ti85ztBYJMB8GA1UdIwQYMBaAFPL+ztg6cQ1/Jkfte/7gSLDdunXZ
MAwGA1UdEwEB/wQCMAAwDgYDVR0PAQH/BAQDAgeAMBMGA1UdJQQMMAoGCCsGAQUF
BwMDMA0GCSqGSIb3DQEBCwUAA4IBAQC3JYrwImtTc3TPTRtkoPhYO08LKePatdQB
0uJoM2mAjASR8JtARN4x8JeentkpPUJYIZg5zJOoi2iuY5wu32dr/VWOFWEhcqsS
CEVM6Io8hLe93yf1+W17y2QywPMi/Nnf0c+7WClapzzCbLTmdn9s5t8c2+VvsqSR
WWzlU2wDT8AKc/IZQfYPEolLgs0U6EnzaLGNOx2ZLHo3z48IcxS/bZrA+FFH8wPo
RuoTTJhrAAJzxn/D/t9St1cQr97z24jx02PwCFe2DSbdCtkc3gX2uWcT4+A3zFVR
SfjM4Z5gEuE6h9zjmyoZ7F+SK3FMXZVV6hWEqE1yCwVmk1X4jXT+
-----END CERTIFICATE-----
