Certificate:
    Data:
        Version: 3 (0x2)
        Serial Number: 1 (0x1)
        Signature Algorithm: sha256WithRSAEncryption
        Issuer: C=US, ST=State, L=City, O=Example Org, CN=Example Org RAUC CA Development
        Validity
            Not Before: Aug 19 10:17:11 2025 GMT
            Not After : Aug 19 10:17:11 2026 GMT
        Subject: C=US, ST=State, O=Example Org, CN=Example Org Development-1
        Subject Public Key Info:
            Public Key Algorithm: rsaEncryption
                Public-Key: (2048 bit)
                Modulus:
                    00:af:18:0e:2b:64:54:33:d8:b4:9d:e2:7a:fc:85:
                    ef:f2:98:bc:c4:92:1f:25:4b:d6:a0:1f:5c:7d:20:
                    78:7b:4f:99:03:63:51:61:e6:00:f5:40:c9:4c:a2:
                    9d:4b:8b:6b:9f:67:02:a9:73:25:b4:6d:24:95:f7:
                    53:60:89:cf:c9:f0:17:76:e1:1b:13:3d:64:68:9e:
                    51:5b:50:84:0e:89:b6:ae:2b:65:ff:a8:2a:5a:9a:
                    1b:fd:5f:12:ab:5f:64:52:9f:a4:e6:f7:53:92:e7:
                    78:92:c4:c3:11:6f:55:48:93:26:dc:c8:02:c5:b9:
                    ab:69:22:af:ff:89:f6:2f:c9:57:38:be:57:97:28:
                    54:e0:8a:15:a5:1e:48:19:7d:98:db:36:11:aa:41:
                    3a:0c:a8:c8:35:4f:a0:c2:cc:a4:f1:cc:e2:5b:e4:
                    71:13:6b:3f:6f:ae:e6:19:b3:ae:08:75:c2:52:b9:
                    a0:32:de:39:20:7c:89:ef:c6:86:e7:13:ec:a8:d7:
                    d4:89:e2:3c:79:14:2a:ff:f0:91:ae:c7:31:e8:60:
                    6c:72:78:ec:29:3e:51:c2:10:ec:82:af:9e:e0:23:
                    72:64:a7:d9:a1:aa:3f:9d:11:b7:34:ed:46:e3:ed:
                    fb:0e:e3:f4:68:fc:99:5e:b4:67:c0:37:e6:a5:ea:
                    81:df
                Exponent: 65537 (0x10001)
        X509v3 extensions:
            X509v3 Subject Key Identifier: 
                91:BB:85:87:F3:F5:8B:49:D6:FE:53:73:77:C8:37:9B:CD:14:21:F5
            X509v3 Authority Key Identifier: 
                F2:FE:CE:D8:3A:71:0D:7F:26:47:ED:7B:FE:E0:48:B0:DD:BA:75:D9
            X509v3 Basic Constraints: critical
                CA:FALSE
            X509v3 Key Usage: critical
                Digital Signature
            X509v3 Extended Key Usage: 
                TLS Web Client Authentication, TLS Web Server Authentication
    Signature Algorithm: sha256WithRSAEncryption
    Signature Value:
        a9:38:87:3b:8f:40:b0:54:46:cd:19:49:65:79:7d:9b:9d:92:
        5d:5a:3d:53:3c:0b:15:72:9b:60:18:87:56:ba:29:08:33:50:
        c0:e4:c1:22:52:dd:10:0a:4f:e3:fc:6c:00:d2:6f:23:6e:82:
        fa:e1:9a:a4:82:5a:e0:69:c8:94:a0:d8:65:1a:97:9a:e2:ef:
        0b:99:cc:ba:84:a5:3b:42:90:3e:69:68:0a:2e:b1:35:29:13:
        37:a1:2f:7c:85:bb:c3:72:b3:a1:0a:24:88:b7:60:f5:a1:10:
        fa:f0:f8:03:a1:46:5e:6c:f6:c4:fa:7e:dd:4f:05:44:98:c2:
        88:a4:ca:2d:c8:90:68:13:b0:72:62:3a:d8:48:ee:e0:88:41:
        4f:ef:18:81:93:c5:06:28:5d:40:65:85:3a:c5:0e:bf:5e:16:
        fb:ae:46:c3:5b:22:8f:a2:05:a8:b4:e9:7a:ee:e4:00:ab:2b:
        2a:a9:6e:6f:2c:0b:d3:fc:cf:62:61:1f:ca:92:4d:dc:89:97:
        40:9c:cd:b0:e5:04:a6:02:eb:d5:0d:52:55:49:7d:05:a8:15:
        53:8d:d1:d5:15:1b:34:8f:93:6f:5d:a3:ae:38:0e:73:77:32:
        28:40:32:43:bc:78:de:56:d0:13:9a:b3:96:e0:b4:82:ac:55:
        e8:8d:c3:cf
-----BEGIN CERTIFICATE-----
MIIDvTCCAqWgAwIBAgIBATANBgkqhkiG9w0BAQsFADBsMQswCQYDVQQGEwJVUzEO
MAwGA1UECAwFU3RhdGUxDTALBgNVBAcMBENpdHkxFDASBgNVBAoMC0V4YW1wbGUg
T3JnMSgwJgYDVQQDDB9FeGFtcGxlIE9yZyBSQVVDIENBIERldmVsb3BtZW50MB4X
DTI1MDgxOTEwMTcxMVoXDTI2MDgxOTEwMTcxMVowVzELMAkGA1UEBhMCVVMxDjAM
BgNVBAgMBVN0YXRlMRQwEgYDVQQKDAtFeGFtcGxlIE9yZzEiMCAGA1UEAwwZRXhh
bXBsZSBPcmcgRGV2ZWxvcG1lbnQtMTCCASIwDQYJKoZIhvcNAQEBBQADggEPADCC
AQoCggEBAK8YDitkVDPYtJ3ievyF7/KYvMSSHyVL1qAfXH0geHtPmQNjUWHmAPVA
yUyinUuLa59nAqlzJbRtJJX3U2CJz8nwF3bhGxM9ZGieUVtQhA6Jtq4rZf+oKlqa
G/1fEqtfZFKfpOb3U5LneJLEwxFvVUiTJtzIAsW5q2kir/+J9i/JVzi+V5coVOCK
FaUeSBl9mNs2EapBOgyoyDVPoMLMpPHM4lvkcRNrP2+u5hmzrgh1wlK5oDLeOSB8
ie/GhucT7KjX1IniPHkUKv/wka7HMehgbHJ47Ck+UcIQ7IKvnuAjcmSn2aGqP50R
tzTtRuPt+w7j9Gj8mV60Z8A35qXqgd8CAwEAAaN/MH0wHQYDVR0OBBYEFJG7hYfz
9YtJ1v5Tc3fIN5vNFCH1MB8GA1UdIwQYMBaAFPL+ztg6cQ1/Jkfte/7gSLDdunXZ
MAwGA1UdEwEB/wQCMAAwDgYDVR0PAQH/BAQDAgeAMB0GA1UdJQQWMBQGCCsGAQUF
BwMCBggrBgEFBQcDATANBgkqhkiG9w0BAQsFAAOCAQEAqTiHO49AsFRGzRlJZXl9
m52SXVo9UzwLFXKbYBiHVropCDNQwOTBIlLdEApP4/xsANJvI26C+uGapIJa4GnI
lKDYZRqXmuLvC5nMuoSlO0KQPmloCi6xNSkTN6EvfIW7w3KzoQokiLdg9aEQ+vD4
A6FGXmz2xPp+3U8FRJjCiKTKLciQaBOwcmI62Eju4IhBT+8YgZPFBihdQGWFOsUO
v14W+65Gw1sij6IFqLTpeu7kAKsrKqlubywL0/zPYmEfypJN3ImXQJzNsOUEpgLr
1Q1SVUl9BagVU43R1RUbNI+Tb12jrjgOc3cyKEAyQ7x43lbQE5qzluC0gqxV6I3D
zw==
-----END CERTIFICATE-----
